target datalayout = "e-m:e-p270:32:32-p271:32:32-p272:64:64-i64:64-i128:128-f80:128-n8:16:32:64-S128"
target triple = "x86_64-pc-linux-gnu"

@hf_aprs_weather = internal global i32 0, align 4
@hf_aprs_weather_dir = internal global i32 0, align 4
@hf_aprs_weather_spd = internal global i32 0, align 4
@hf_aprs_weather_peak = internal global i32 0, align 4
@hf_aprs_weather_temp = internal global i32 0, align 4
@hf_aprs_weather_rain_1 = internal global i32 0, align 4
@hf_aprs_weather_rain_24 = internal global i32 0, align 4
@hf_aprs_weather_rain = internal global i32 0, align 4
@hf_aprs_weather_humidty = internal global i32 0, align 4
@hf_aprs_weather_press = internal global i32 0, align 4
@hf_aprs_weather_luminosity = internal global i32 0, align 4
@hf_aprs_weather_snow = internal global i32 0, align 4
@hf_aprs_weather_raw_rain = internal global i32 0, align 4
@hf_aprs_weather_software = internal global i32 0, align 4
@hf_aprs_weather_unit = internal global i32 0, align 4
@ett_aprs_weather = internal global i32 0, align 4
@g_ascii_table = external constant ptr, align 8

; Function Attrs: null_pointer_is_valid sspstrong uwtable
define internal i32 @dissect_aprs_weather(ptr noundef %0, ptr noundef %1, i32 noundef %2, ptr noundef %3) #0 {
  %5 = alloca ptr, align 8
  %6 = alloca ptr, align 8
  %7 = alloca i32, align 4
  %8 = alloca ptr, align 8
  %9 = alloca ptr, align 8
  %10 = alloca ptr, align 8
  %11 = alloca i32, align 4
  %12 = alloca i32, align 4
  %13 = alloca i8, align 1
  %14 = alloca i32, align 4
  store ptr %0, ptr %5, align 8
  store ptr %1, ptr %6, align 8
  store i32 %2, ptr %7, align 4
  store ptr %3, ptr %8, align 8
  call void @llvm.lifetime.start.p0(i64 8, ptr %9) #9
  call void @llvm.lifetime.start.p0(i64 8, ptr %10) #9
  call void @llvm.lifetime.start.p0(i64 4, ptr %11) #9
  call void @llvm.lifetime.start.p0(i64 4, ptr %12) #9
  call void @llvm.lifetime.start.p0(i64 1, ptr %13) #9
  %15 = load ptr, ptr %6, align 8
  %16 = load i32, ptr %7, align 4
  %17 = call i32 @tvb_reported_length_remaining(ptr noundef %15, i32 noundef %16)
  store i32 %17, ptr %12, align 4
  %18 = load i32, ptr %7, align 4
  %19 = load i32, ptr %12, align 4
  %20 = add i32 %18, %19
  store i32 %20, ptr %11, align 4
  %21 = load ptr, ptr %8, align 8
  %22 = load i32, ptr @hf_aprs_weather, align 4
  %23 = load ptr, ptr %6, align 8
  %24 = load i32, ptr %7, align 4
  %25 = load i32, ptr %12, align 4
  %26 = call ptr @proto_tree_add_item(ptr noundef %21, i32 noundef %22, ptr noundef %23, i32 noundef %24, i32 noundef %25, i32 noundef 0)
  store ptr %26, ptr %9, align 8
  %27 = load ptr, ptr %9, align 8
  %28 = load i32, ptr @ett_aprs_weather, align 4
  %29 = call ptr @proto_item_add_subtree(ptr noundef %27, i32 noundef %28)
  store ptr %29, ptr %10, align 8
  %30 = load ptr, ptr %6, align 8
  %31 = load i32, ptr %7, align 4
  %32 = call zeroext i8 @tvb_get_uint8(ptr noundef %30, i32 noundef %31)
  store i8 %32, ptr %13, align 1
  %33 = load ptr, ptr @g_ascii_table, align 8
  %34 = load i8, ptr %13, align 1
  %35 = zext i8 %34 to i64
  %36 = getelementptr i16, ptr %33, i64 %35
  %37 = load i16, ptr %36, align 2
  %38 = zext i16 %37 to i32
  %39 = and i32 %38, 8
  %40 = icmp ne i32 %39, 0
  br i1 %40, label %41, label %58

41:                                               ; preds = %4
  %42 = load ptr, ptr %10, align 8
  %43 = load i32, ptr @hf_aprs_weather_dir, align 4
  %44 = load ptr, ptr %6, align 8
  %45 = load i32, ptr %7, align 4
  %46 = call ptr @proto_tree_add_item(ptr noundef %42, i32 noundef %43, ptr noundef %44, i32 noundef %45, i32 noundef 3, i32 noundef 0)
  %47 = load i32, ptr %7, align 4
  %48 = add i32 %47, 3
  store i32 %48, ptr %7, align 4
  %49 = load i32, ptr %7, align 4
  %50 = add i32 %49, 1
  store i32 %50, ptr %7, align 4
  %51 = load ptr, ptr %10, align 8
  %52 = load i32, ptr @hf_aprs_weather_spd, align 4
  %53 = load ptr, ptr %6, align 8
  %54 = load i32, ptr %7, align 4
  %55 = call ptr @proto_tree_add_item(ptr noundef %51, i32 noundef %52, ptr noundef %53, i32 noundef %54, i32 noundef 3, i32 noundef 0)
  %56 = load i32, ptr %7, align 4
  %57 = add i32 %56, 3
  store i32 %57, ptr %7, align 4
  br label %58

58:                                               ; preds = %41, %4
  %59 = load ptr, ptr %8, align 8
  %60 = icmp ne ptr %59, null
  br i1 %60, label %61, label %189

61:                                               ; preds = %58
  br label %62

62:                                               ; preds = %187, %61
  %63 = load i32, ptr %7, align 4
  %64 = load i32, ptr %11, align 4
  %65 = icmp slt i32 %63, %64
  br i1 %65, label %66, label %188

66:                                               ; preds = %62
  %67 = load ptr, ptr %6, align 8
  %68 = load i32, ptr %7, align 4
  %69 = call zeroext i8 @tvb_get_uint8(ptr noundef %67, i32 noundef %68)
  store i8 %69, ptr %13, align 1
  %70 = load i8, ptr %13, align 1
  %71 = zext i8 %70 to i32
  switch i32 %71, label %168 [
    i32 99, label %72
    i32 115, label %80
    i32 103, label %88
    i32 116, label %96
    i32 114, label %104
    i32 80, label %112
    i32 112, label %120
    i32 104, label %128
    i32 98, label %136
    i32 108, label %144
    i32 76, label %144
    i32 83, label %152
    i32 35, label %160
  ]

72:                                               ; preds = %66
  %73 = load ptr, ptr %10, align 8
  %74 = load i32, ptr @hf_aprs_weather_dir, align 4
  %75 = load ptr, ptr %6, align 8
  %76 = load i32, ptr %7, align 4
  %77 = call ptr @proto_tree_add_item(ptr noundef %73, i32 noundef %74, ptr noundef %75, i32 noundef %76, i32 noundef 4, i32 noundef 0)
  %78 = load i32, ptr %7, align 4
  %79 = add i32 %78, 4
  store i32 %79, ptr %7, align 4
  br label %187

80:                                               ; preds = %66
  %81 = load ptr, ptr %10, align 8
  %82 = load i32, ptr @hf_aprs_weather_spd, align 4
  %83 = load ptr, ptr %6, align 8
  %84 = load i32, ptr %7, align 4
  %85 = call ptr @proto_tree_add_item(ptr noundef %81, i32 noundef %82, ptr noundef %83, i32 noundef %84, i32 noundef 4, i32 noundef 0)
  %86 = load i32, ptr %7, align 4
  %87 = add i32 %86, 4
  store i32 %87, ptr %7, align 4
  br label %187

88:                                               ; preds = %66
  %89 = load ptr, ptr %10, align 8
  %90 = load i32, ptr @hf_aprs_weather_peak, align 4
  %91 = load ptr, ptr %6, align 8
  %92 = load i32, ptr %7, align 4
  %93 = call ptr @proto_tree_add_item(ptr noundef %89, i32 noundef %90, ptr noundef %91, i32 noundef %92, i32 noundef 4, i32 noundef 0)
  %94 = load i32, ptr %7, align 4
  %95 = add i32 %94, 4
  store i32 %95, ptr %7, align 4
  br label %187

96:                                               ; preds = %66
  %97 = load ptr, ptr %10, align 8
  %98 = load i32, ptr @hf_aprs_weather_temp, align 4
  %99 = load ptr, ptr %6, align 8
  %100 = load i32, ptr %7, align 4
  %101 = call ptr @proto_tree_add_item(ptr noundef %97, i32 noundef %98, ptr noundef %99, i32 noundef %100, i32 noundef 4, i32 noundef 0)
  %102 = load i32, ptr %7, align 4
  %103 = add i32 %102, 4
  store i32 %103, ptr %7, align 4
  br label %187

104:                                              ; preds = %66
  %105 = load ptr, ptr %10, align 8
  %106 = load i32, ptr @hf_aprs_weather_rain_1, align 4
  %107 = load ptr, ptr %6, align 8
  %108 = load i32, ptr %7, align 4
  %109 = call ptr @proto_tree_add_item(ptr noundef %105, i32 noundef %106, ptr noundef %107, i32 noundef %108, i32 noundef 4, i32 noundef 0)
  %110 = load i32, ptr %7, align 4
  %111 = add i32 %110, 4
  store i32 %111, ptr %7, align 4
  br label %187

112:                                              ; preds = %66
  %113 = load ptr, ptr %10, align 8
  %114 = load i32, ptr @hf_aprs_weather_rain_24, align 4
  %115 = load ptr, ptr %6, align 8
  %116 = load i32, ptr %7, align 4
  %117 = call ptr @proto_tree_add_item(ptr noundef %113, i32 noundef %114, ptr noundef %115, i32 noundef %116, i32 noundef 4, i32 noundef 0)
  %118 = load i32, ptr %7, align 4
  %119 = add i32 %118, 4
  store i32 %119, ptr %7, align 4
  br label %187

120:                                              ; preds = %66
  %121 = load ptr, ptr %10, align 8
  %122 = load i32, ptr @hf_aprs_weather_rain, align 4
  %123 = load ptr, ptr %6, align 8
  %124 = load i32, ptr %7, align 4
  %125 = call ptr @proto_tree_add_item(ptr noundef %121, i32 noundef %122, ptr noundef %123, i32 noundef %124, i32 noundef 4, i32 noundef 0)
  %126 = load i32, ptr %7, align 4
  %127 = add i32 %126, 4
  store i32 %127, ptr %7, align 4
  br label %187

128:                                              ; preds = %66
  %129 = load ptr, ptr %10, align 8
  %130 = load i32, ptr @hf_aprs_weather_humidty, align 4
  %131 = load ptr, ptr %6, align 8
  %132 = load i32, ptr %7, align 4
  %133 = call ptr @proto_tree_add_item(ptr noundef %129, i32 noundef %130, ptr noundef %131, i32 noundef %132, i32 noundef 3, i32 noundef 0)
  %134 = load i32, ptr %7, align 4
  %135 = add i32 %134, 3
  store i32 %135, ptr %7, align 4
  br label %187

136:                                              ; preds = %66
  %137 = load ptr, ptr %10, align 8
  %138 = load i32, ptr @hf_aprs_weather_press, align 4
  %139 = load ptr, ptr %6, align 8
  %140 = load i32, ptr %7, align 4
  %141 = call ptr @proto_tree_add_item(ptr noundef %137, i32 noundef %138, ptr noundef %139, i32 noundef %140, i32 noundef 6, i32 noundef 0)
  %142 = load i32, ptr %7, align 4
  %143 = add i32 %142, 6
  store i32 %143, ptr %7, align 4
  br label %187

144:                                              ; preds = %66, %66
  %145 = load ptr, ptr %10, align 8
  %146 = load i32, ptr @hf_aprs_weather_luminosity, align 4
  %147 = load ptr, ptr %6, align 8
  %148 = load i32, ptr %7, align 4
  %149 = call ptr @proto_tree_add_item(ptr noundef %145, i32 noundef %146, ptr noundef %147, i32 noundef %148, i32 noundef 4, i32 noundef 0)
  %150 = load i32, ptr %7, align 4
  %151 = add i32 %150, 4
  store i32 %151, ptr %7, align 4
  br label %187

152:                                              ; preds = %66
  %153 = load ptr, ptr %10, align 8
  %154 = load i32, ptr @hf_aprs_weather_snow, align 4
  %155 = load ptr, ptr %6, align 8
  %156 = load i32, ptr %7, align 4
  %157 = call ptr @proto_tree_add_item(ptr noundef %153, i32 noundef %154, ptr noundef %155, i32 noundef %156, i32 noundef 4, i32 noundef 0)
  %158 = load i32, ptr %7, align 4
  %159 = add i32 %158, 4
  store i32 %159, ptr %7, align 4
  br label %187

160:                                              ; preds = %66
  %161 = load ptr, ptr %10, align 8
  %162 = load i32, ptr @hf_aprs_weather_raw_rain, align 4
  %163 = load ptr, ptr %6, align 8
  %164 = load i32, ptr %7, align 4
  %165 = call ptr @proto_tree_add_item(ptr noundef %161, i32 noundef %162, ptr noundef %163, i32 noundef %164, i32 noundef 4, i32 noundef 0)
  %166 = load i32, ptr %7, align 4
  %167 = add i32 %166, 4
  store i32 %167, ptr %7, align 4
  br label %187

168:                                              ; preds = %66
  call void @llvm.lifetime.start.p0(i64 4, ptr %14) #9
  %169 = load i32, ptr %11, align 4
  %170 = load i32, ptr %7, align 4
  %171 = sub i32 %169, %170
  store i32 %171, ptr %14, align 4
  %172 = load ptr, ptr %10, align 8
  %173 = load i32, ptr @hf_aprs_weather_software, align 4
  %174 = load ptr, ptr %6, align 8
  %175 = load i32, ptr %7, align 4
  %176 = call ptr @proto_tree_add_item(ptr noundef %172, i32 noundef %173, ptr noundef %174, i32 noundef %175, i32 noundef 1, i32 noundef 0)
  %177 = load i32, ptr %7, align 4
  %178 = add i32 %177, 1
  store i32 %178, ptr %7, align 4
  %179 = load ptr, ptr %10, align 8
  %180 = load i32, ptr @hf_aprs_weather_unit, align 4
  %181 = load ptr, ptr %6, align 8
  %182 = load i32, ptr %7, align 4
  %183 = load i32, ptr %14, align 4
  %184 = sub i32 %183, 1
  %185 = call ptr @proto_tree_add_item(ptr noundef %179, i32 noundef %180, ptr noundef %181, i32 noundef %182, i32 noundef %184, i32 noundef 0)
  %186 = load i32, ptr %11, align 4
  store i32 %186, ptr %7, align 4
  call void @llvm.lifetime.end.p0(i64 4, ptr %14) #9
  br label %187

187:                                              ; preds = %168, %160, %152, %144, %136, %128, %120, %112, %104, %96, %88, %80, %72
  br label %62, !llvm.loop !6

188:                                              ; preds = %62
  br label %189

189:                                              ; preds = %188, %58
  %190 = load i32, ptr %11, align 4
  call void @llvm.lifetime.end.p0(i64 1, ptr %13) #9
  call void @llvm.lifetime.end.p0(i64 4, ptr %12) #9
  call void @llvm.lifetime.end.p0(i64 4, ptr %11) #9
  call void @llvm.lifetime.end.p0(i64 8, ptr %10) #9
  call void @llvm.lifetime.end.p0(i64 8, ptr %9) #9
  ret i32 %190
}