; Function Attrs: null_pointer_is_valid sspstrong uwtable
define internal fastcc noundef i32 @dissect_aprs_weather(ptr noundef %0, i32 noundef %1, ptr noundef %2) unnamed_addr #0 {
  %4 = tail call i32 @tvb_reported_length_remaining(ptr noundef %0, i32 noundef %1)
  %5 = add i32 %4, %1
  %6 = load i32, ptr @hf_aprs_weather, align 4
  %7 = tail call ptr @proto_tree_add_item(ptr noundef %2, i32 noundef %6, ptr noundef %0, i32 noundef %1, i32 noundef %4, i32 noundef 0)
  %8 = load i32, ptr @ett_aprs_weather, align 4
  %9 = tail call ptr @proto_item_add_subtree(ptr noundef %7, i32 noundef %8)
  %10 = tail call zeroext i8 @tvb_get_uint8(ptr noundef %0, i32 noundef %1)
  %11 = load ptr, ptr @g_ascii_table, align 8
  %12 = zext i8 %10 to i64
  %13 = getelementptr i16, ptr %11, i64 %12
  %14 = load i16, ptr %13, align 2
  %15 = and i16 %14, 8
  %.not = icmp eq i16 %15, 0
  br i1 %.not, label %23, label %16

16:                                               ; preds = %3
  %17 = load i32, ptr @hf_aprs_weather_dir, align 4
  %18 = tail call ptr @proto_tree_add_item(ptr noundef %9, i32 noundef %17, ptr noundef %0, i32 noundef %1, i32 noundef 3, i32 noundef 0)
  %19 = add i32 %1, 4
  %20 = load i32, ptr @hf_aprs_weather_spd, align 4
  %21 = tail call ptr @proto_tree_add_item(ptr noundef %9, i32 noundef %20, ptr noundef %0, i32 noundef %19, i32 noundef 3, i32 noundef 0)
  %22 = add i32 %1, 7
  br label %23

23:                                               ; preds = %16, %3
  %.0 = phi i32 [ %22, %16 ], [ %1, %3 ]
  %.not87 = icmp ne ptr %2, null
  %24 = icmp slt i32 %.0, %5
  %or.cond = and i1 %.not87, %24
  br i1 %or.cond, label %.lr.ph, label %.loopexit

.lr.ph:                                           ; preds = %23, %44
  %.11 = phi i32 [ %47, %44 ], [ %.0, %23 ]
  %25 = tail call zeroext i8 @tvb_get_uint8(ptr noundef %0, i32 noundef %.11)
  switch i8 %25, label %.thread [
    i8 99, label %44
    i8 115, label %26
    i8 103, label %27
    i8 116, label %28
    i8 114, label %29
    i8 80, label %30
    i8 112, label %31
    i8 104, label %32
    i8 98, label %33
    i8 108, label %34
    i8 76, label %34
    i8 83, label %35
    i8 35, label %36
  ]

26:                                               ; preds = %.lr.ph
  br label %44

27:                                               ; preds = %.lr.ph
  br label %44

28:                                               ; preds = %.lr.ph
  br label %44

29:                                               ; preds = %.lr.ph
  br label %44

30:                                               ; preds = %.lr.ph
  br label %44

31:                                               ; preds = %.lr.ph
  br label %44

32:                                               ; preds = %.lr.ph
  br label %44

33:                                               ; preds = %.lr.ph
  br label %44

34:                                               ; preds = %.lr.ph, %.lr.ph
  br label %44

35:                                               ; preds = %.lr.ph
  br label %44

36:                                               ; preds = %.lr.ph
  br label %44

.thread:                                          ; preds = %.lr.ph
  %37 = load i32, ptr @hf_aprs_weather_software, align 4
  %38 = tail call ptr @proto_tree_add_item(ptr noundef %9, i32 noundef %37, ptr noundef %0, i32 noundef %.11, i32 noundef 1, i32 noundef 0)
  %39 = add nsw i32 %.11, 1
  %40 = load i32, ptr @hf_aprs_weather_unit, align 4
  %41 = xor i32 %.11, -1
  %42 = add i32 %5, %41
  %43 = tail call ptr @proto_tree_add_item(ptr noundef %9, i32 noundef %40, ptr noundef %0, i32 noundef %39, i32 noundef %42, i32 noundef 0)
  br label %.loopexit

44:                                               ; preds = %.lr.ph, %36, %35, %34, %33, %32, %31, %30, %29, %28, %27, %26
  %hf_aprs_weather_raw_rain.sink = phi ptr [ @hf_aprs_weather_raw_rain, %36 ], [ @hf_aprs_weather_snow, %35 ], [ @hf_aprs_weather_luminosity, %34 ], [ @hf_aprs_weather_press, %33 ], [ @hf_aprs_weather_humidty, %32 ], [ @hf_aprs_weather_rain, %31 ], [ @hf_aprs_weather_rain_24, %30 ], [ @hf_aprs_weather_rain_1, %29 ], [ @hf_aprs_weather_temp, %28 ], [ @hf_aprs_weather_peak, %27 ], [ @hf_aprs_weather_spd, %26 ], [ @hf_aprs_weather_dir, %.lr.ph ]
  %.sink5 = phi i32 [ 4, %36 ], [ 4, %35 ], [ 4, %34 ], [ 6, %33 ], [ 3, %32 ], [ 4, %31 ], [ 4, %30 ], [ 4, %29 ], [ 4, %28 ], [ 4, %27 ], [ 4, %26 ], [ 4, %.lr.ph ]
  %45 = load i32, ptr %hf_aprs_weather_raw_rain.sink, align 4
  %46 = tail call ptr @proto_tree_add_item(ptr noundef %9, i32 noundef %45, ptr noundef %0, i32 noundef %.11, i32 noundef %.sink5, i32 noundef 0)
  %47 = add i32 %.11, %.sink5
  %48 = icmp slt i32 %47, %5
  br i1 %48, label %.lr.ph, label %.loopexit, !llvm.loop !6

.loopexit:                                        ; preds = %44, %.thread, %23
  ret i32 %5
}